target datalayout = "e-m:e-p270:32:32-p271:32:32-p272:64:64-i64:64-i128:128-f80:128-n8:16:32:64-S128"
target triple = "x86_64-pc-linux-gnu"

%struct.SDL_GUID = type { [16 x i8] }
%struct.SDL_Joystick = type { i32, ptr, ptr, ptr, %struct.SDL_GUID, i16, i64, i8, i8, i32, ptr, i32, ptr, i32, ptr, i32, ptr, i32, ptr, i32, i32, ptr, i16, i16, i64, i64, i16, i16, i64, i64, i8, i8, i8, i64, i8, i32, i32, i32, i8, i32, ptr, i32, ptr, [3 x [3 x float]], i64, ptr, ptr, i32, i32, ptr }
%union.SDL_Event = type { %struct.SDL_MouseWheelEvent, [72 x i8] }
%struct.SDL_MouseWheelEvent = type { i32, i32, i64, i32, i32, float, float, i32, float, float, i32, i32 }
%struct.SDL_CommonEvent = type { i32, i32, i64 }
%struct.SDL_JoyButtonEvent = type { i32, i32, i64, i32, i8, i8, i8, i8 }

@SDL_joystick_allows_background_events = internal global i8 0, align 1

; Function Attrs: nounwind uwtable
define internal zeroext i1 @SDL_PrivateJoystickShouldIgnoreEvent() #0 {
  %1 = alloca i1, align 1
  %2 = load i8, ptr @SDL_joystick_allows_background_events, align 1, !range !3, !noundef !4
  %3 = trunc i8 %2 to i1
  br i1 %3, label %4, label %5

4:                                                ; preds = %0
  store i1 false, ptr %1, align 1
  br label %12

5:                                                ; preds = %0
  %6 = call zeroext i1 @SDL_HasWindows()
  br i1 %6, label %7, label %11

7:                                                ; preds = %5
  %8 = call ptr @SDL_GetKeyboardFocus_REAL()
  %9 = icmp eq ptr %8, null
  br i1 %9, label %10, label %11

10:                                               ; preds = %7
  store i1 true, ptr %1, align 1
  br label %12

11:                                               ; preds = %7, %5
  store i1 false, ptr %1, align 1
  br label %12

12:                                               ; preds = %11, %10, %4
  %13 = load i1, ptr %1, align 1
  ret i1 %13
}

; Function Attrs: nounwind uwtable
define hidden void @SDL_AssertJoysticksLocked() #0 {
  br label %1

1:                                                ; preds = %0
  br label %2

2:                                                ; preds = %1
  ret void
}

; Function Attrs: nounwind uwtable
define hidden void @SDL_SendJoystickButton(i64 noundef %0, ptr noundef %1, i8 noundef zeroext %2, i1 noundef zeroext %3) #0 {
  %5 = alloca i64, align 8
  %6 = alloca ptr, align 8
  %7 = alloca i8, align 1
  %8 = alloca i8, align 1
  %9 = alloca %union.SDL_Event, align 8
  %10 = alloca i32, align 4
  store i64 %0, ptr %5, align 8
  store ptr %1, ptr %6, align 8
  store i8 %2, ptr %7, align 1
  %11 = zext i1 %3 to i8
  store i8 %11, ptr %8, align 1
  call void @llvm.lifetime.start.p0(i64 128, ptr %9) #7
  call void @SDL_AssertJoysticksLocked()
  %12 = load i8, ptr %8, align 1, !range !3, !noundef !4
  %13 = trunc i8 %12 to i1
  br i1 %13, label %14, label %15

14:                                               ; preds = %4
  store i32 1539, ptr %9, align 8
  br label %16

15:                                               ; preds = %4
  store i32 1540, ptr %9, align 8
  br label %16

16:                                               ; preds = %15, %14
  %17 = load ptr, ptr %6, align 8
  %18 = getelementptr inbounds nuw %struct.SDL_Joystick, ptr %17, i32 0, i32 7
  %19 = load i8, ptr %18, align 8, !range !3, !noundef !4
  %20 = trunc i8 %19 to i1
  br i1 %20, label %21, label %30

21:                                               ; preds = %16
  %22 = load i8, ptr %7, align 1
  %23 = zext i8 %22 to i32
  switch i32 %23, label %28 [
    i32 0, label %24
    i32 1, label %25
    i32 2, label %26
    i32 3, label %27
  ]

24:                                               ; preds = %21
  store i8 1, ptr %7, align 1
  br label %29

25:                                               ; preds = %21
  store i8 0, ptr %7, align 1
  br label %29

26:                                               ; preds = %21
  store i8 3, ptr %7, align 1
  br label %29

27:                                               ; preds = %21
  store i8 2, ptr %7, align 1
  br label %29

28:                                               ; preds = %21
  br label %29

29:                                               ; preds = %28, %27, %26, %25, %24
  br label %30

30:                                               ; preds = %29, %16
  %31 = load i8, ptr %7, align 1
  %32 = zext i8 %31 to i32
  %33 = load ptr, ptr %6, align 8
  %34 = getelementptr inbounds nuw %struct.SDL_Joystick, ptr %33, i32 0, i32 15
  %35 = load i32, ptr %34, align 8
  %36 = icmp sge i32 %32, %35
  br i1 %36, label %37, label %38

37:                                               ; preds = %30
  store i32 1, ptr %10, align 4
  br label %93

38:                                               ; preds = %30
  %39 = load i8, ptr %8, align 1, !range !3, !noundef !4
  %40 = trunc i8 %39 to i1
  %41 = zext i1 %40 to i32
  %42 = load ptr, ptr %6, align 8
  %43 = getelementptr inbounds nuw %struct.SDL_Joystick, ptr %42, i32 0, i32 16
  %44 = load ptr, ptr %43, align 8
  %45 = load i8, ptr %7, align 1
  %46 = zext i8 %45 to i64
  %47 = getelementptr inbounds nuw i8, ptr %44, i64 %46
  %48 = load i8, ptr %47, align 1, !range !3, !noundef !4
  %49 = trunc i8 %48 to i1
  %50 = zext i1 %49 to i32
  %51 = icmp eq i32 %41, %50
  br i1 %51, label %52, label %53

52:                                               ; preds = %38
  store i32 1, ptr %10, align 4
  br label %93

53:                                               ; preds = %38
  %54 = call zeroext i1 @SDL_PrivateJoystickShouldIgnoreEvent()
  br i1 %54, label %55, label %60

55:                                               ; preds = %53
  %56 = load i8, ptr %8, align 1, !range !3, !noundef !4
  %57 = trunc i8 %56 to i1
  br i1 %57, label %58, label %59

58:                                               ; preds = %55
  store i32 1, ptr %10, align 4
  br label %93

59:                                               ; preds = %55
  br label %60

60:                                               ; preds = %59, %53
  br label %61

61:                                               ; preds = %60
  br label %62

62:                                               ; preds = %61
  br label %63

63:                                               ; preds = %62
  %64 = load i8, ptr %8, align 1, !range !3, !noundef !4
  %65 = trunc i8 %64 to i1
  %66 = load ptr, ptr %6, align 8
  %67 = getelementptr inbounds nuw %struct.SDL_Joystick, ptr %66, i32 0, i32 16
  %68 = load ptr, ptr %67, align 8
  %69 = load i8, ptr %7, align 1
  %70 = zext i8 %69 to i64
  %71 = getelementptr inbounds nuw i8, ptr %68, i64 %70
  %72 = zext i1 %65 to i8
  store i8 %72, ptr %71, align 1
  %73 = load i64, ptr %5, align 8
  %74 = load ptr, ptr %6, align 8
  %75 = getelementptr inbounds nuw %struct.SDL_Joystick, ptr %74, i32 0, i32 44
  store i64 %73, ptr %75, align 8
  %76 = load i32, ptr %9, align 8
  %77 = call zeroext i1 @SDL_EventEnabled_REAL(i32 noundef %76)
  br i1 %77, label %78, label %92

78:                                               ; preds = %63
  %79 = load i64, ptr %5, align 8
  %80 = getelementptr inbounds nuw %struct.SDL_CommonEvent, ptr %9, i32 0, i32 2
  store i64 %79, ptr %80, align 8
  %81 = load ptr, ptr %6, align 8
  %82 = getelementptr inbounds nuw %struct.SDL_Joystick, ptr %81, i32 0, i32 0
  %83 = load i32, ptr %82, align 8
  %84 = getelementptr inbounds nuw %struct.SDL_JoyButtonEvent, ptr %9, i32 0, i32 3
  store i32 %83, ptr %84, align 8
  %85 = load i8, ptr %7, align 1
  %86 = getelementptr inbounds nuw %struct.SDL_JoyButtonEvent, ptr %9, i32 0, i32 4
  store i8 %85, ptr %86, align 4
  %87 = load i8, ptr %8, align 1, !range !3, !noundef !4
  %88 = trunc i8 %87 to i1
  %89 = getelementptr inbounds nuw %struct.SDL_JoyButtonEvent, ptr %9, i32 0, i32 5
  %90 = zext i1 %88 to i8
  store i8 %90, ptr %89, align 1
  %91 = call zeroext i1 @SDL_PushEvent_REAL(ptr noundef %9)
  br label %92

92:                                               ; preds = %78, %63
  store i32 0, ptr %10, align 4
  br label %93

93:                                               ; preds = %92, %58, %52, %37
  call void @llvm.lifetime.end.p0(i64 128, ptr %9) #7
  %94 = load i32, ptr %10, align 4
  switch i32 %94, label %96 [
    i32 0, label %95
    i32 1, label %95
  ]

95:                                               ; preds = %93, %93
  ret void

96:                                               ; preds = %93
  unreachable
}