; Function Attrs: nounwind uwtable
define hidden void @SDL_SendJoystickButton(i64 noundef %0, ptr noundef captures(none) %1, i8 noundef zeroext %2, i1 noundef zeroext %3) local_unnamed_addr #1 {
  %5 = alloca %union.SDL_Event, align 8
  %6 = zext i1 %3 to i8
  call void @llvm.lifetime.start.p0(i64 128, ptr nonnull %5) #13
  %. = select i1 %3, i32 1539, i32 1540
  store i32 %., ptr %5, align 8
  %7 = getelementptr inbounds nuw i8, ptr %1, i64 64
  %8 = load i8, ptr %7, align 8, !range !26, !noundef !27
  %9 = trunc nuw i8 %8 to i1
  %10 = icmp ult i8 %2, 4
  %or.cond = and i1 %10, %9
  %switch.cast = zext i8 %2 to i32
  %switch.shiftamt = shl nuw nsw i32 %switch.cast, 3
  %switch.downshift = lshr i32 33751041, %switch.shiftamt
  %switch.masked = trunc i32 %switch.downshift to i8
  %.0 = select i1 %or.cond, i8 %switch.masked, i8 %2
  %11 = zext i8 %.0 to i32
  %12 = getelementptr inbounds nuw i8, ptr %1, i64 112
  %13 = load i32, ptr %12, align 8
  %.not = icmp sgt i32 %13, %11
  br i1 %.not, label %14, label %38

14:                                               ; preds = %4
  %15 = getelementptr inbounds nuw i8, ptr %1, i64 120
  %16 = load ptr, ptr %15, align 8
  %17 = zext i8 %.0 to i64
  %18 = getelementptr inbounds nuw i8, ptr %16, i64 %17
  %19 = load i8, ptr %18, align 1, !range !26, !noundef !27
  %20 = icmp eq i8 %19, %6
  br i1 %20, label %38, label %21

21:                                               ; preds = %14
  %.b1.i = load i1, ptr @SDL_joystick_allows_background_events, align 1
  br i1 %.b1.i, label %SDL_PrivateJoystickShouldIgnoreEvent.exit.thread, label %22

22:                                               ; preds = %21
  %23 = tail call zeroext i1 @SDL_HasWindows() #13
  br i1 %23, label %24, label %SDL_PrivateJoystickShouldIgnoreEvent.exit.thread

24:                                               ; preds = %22
  %25 = tail call ptr @SDL_GetKeyboardFocus_REAL() #13
  %26 = icmp eq ptr %25, null
  %or.cond20 = and i1 %3, %26
  br i1 %or.cond20, label %38, label %SDL_PrivateJoystickShouldIgnoreEvent.exit.thread

SDL_PrivateJoystickShouldIgnoreEvent.exit.thread: ; preds = %22, %24, %21
  %27 = load ptr, ptr %15, align 8
  %28 = getelementptr inbounds nuw i8, ptr %27, i64 %17
  store i8 %6, ptr %28, align 1
  %29 = getelementptr inbounds nuw i8, ptr %1, i64 312
  store i64 %0, ptr %29, align 8
  %30 = tail call zeroext i1 @SDL_EventEnabled_REAL(i32 noundef %.) #13
  br i1 %30, label %31, label %38

31:                                               ; preds = %SDL_PrivateJoystickShouldIgnoreEvent.exit.thread
  %32 = getelementptr inbounds nuw i8, ptr %5, i64 8
  store i64 %0, ptr %32, align 8
  %33 = load i32, ptr %1, align 8
  %34 = getelementptr inbounds nuw i8, ptr %5, i64 16
  store i32 %33, ptr %34, align 8
  %35 = getelementptr inbounds nuw i8, ptr %5, i64 20
  store i8 %.0, ptr %35, align 4
  %36 = getelementptr inbounds nuw i8, ptr %5, i64 21
  store i8 %6, ptr %36, align 1
  %37 = call zeroext i1 @SDL_PushEvent_REAL(ptr noundef nonnull %5) #13
  br label %38

38:                                               ; preds = %24, %SDL_PrivateJoystickShouldIgnoreEvent.exit.thread, %31, %14, %4
  call void @llvm.lifetime.end.p0(i64 128, ptr nonnull %5) #13
  ret void
}